

jmps.s

   1  000000                    .code16
   2  000000                    
   3  000000  e8ad00            		call routine16
   4  000003  e80701            		call routine32
   5  000006  ff160000          		call *routine16
   6  00000a  ffd0              		call %ax
   7  00000c  ffd0              		call *%ax
   8  00000e  66ffd3            		call *%ebx
   9  000011  0f809b00          		jo routine16
  10  000015  0f819700          		jno routine16
  11  000019  0f829300          		jb routine16
  12  00001d  0f828f00          		jc routine16
  13  000021  0f828b00          		jnae routine16
  14  000025  0f838700          		jnb routine16
  15  000029  0f838300          		jnc routine16
  16  00002d  0f837f00          		jae routine16
  17  000031  747d              		jz routine16
  18  000033  747b              		je routine16
  19  000035  7579              		jnz routine16
  20  000037  7577              		jne routine16
  21  000039  7675              		jbe routine16
  22  00003b  7673              		jna routine16
  23  00003d  7771              		jnbe routine16
  24  00003f  776f              		ja routine16
  25  000041  786d              		js routine16
  26  000043  796b              		jns routine16
  27  000045  7a69              		jp routine16
  28  000047  7a67              		jpe routine16
  29  000049  7b65              		jnp routine16
  30  00004b  7b63              		jpo routine16
  31  00004d  7c61              		jl routine16
  32  00004f  7c5f              		jnge routine16
  33  000051  7d5d              		jnl routine16
  34  000053  7d5b              		jge routine16
  35  000055  7e59              		jle routine16
  36  000057  7e57              		jng routine16
  37  000059  7f55              		jnle routine16
  38  00005b  7f53              		jg routine16
  39  00005d  eb51              		jmp routine16
  40  00005f  e9ab00            		jmp routine32
  41  000062  e96d01            		jmp routine64
  42  000065                    
  43  000065  0000000000000000  		.org 0xB0
              00000000000000..
  44  0000b0                    
  45  0000b0                    routine16:
  46  0000b0                    
  47  0000b0                    .code32
  48  0000b0  70fe              		jo routine16
  49  0000b2  71fc              		jno routine16
  50  0000b4  72fa              		jb routine16
  51  0000b6  72f8              		jc routine16
  52  0000b8  72f6              		jnae routine16
  53  0000ba  73f4              		jnb routine16
  54  0000bc  73f2              		jnc routine16
  55  0000be  73f0              		jae routine16
  56  0000c0  74ee              		jz routine16
  57  0000c2  74ec              		je routine16
  58  0000c4  75ea              		jnz routine16
  59  0000c6  75e8              		jne routine16
  60  0000c8  76e6              		jbe routine16
  61  0000ca  76e4              		jna routine16
  62  0000cc  77e2              		jnbe routine16
  63  0000ce  77e0              		ja routine16
  64  0000d0  78de              		js routine16
  65  0000d2  79dc              		jns routine16
  66  0000d4  7ada              		jp routine16
  67  0000d6  7ad8              		jpe routine16
  68  0000d8  7bd6              		jnp routine16
  69  0000da  7bd4              		jpo routine16
  70  0000dc  7cd2              		jl routine16
  71  0000de  7cd0              		jnge routine16
  72  0000e0  7dce              		jnl routine16
  73  0000e2  7dcc              		jge routine16
  74  0000e4  7eca              		jle routine16
  75  0000e6  7ec8              		jng routine16
  76  0000e8  7fc6              		jnle routine16
  77  0000ea  7fc4              		jg routine16
  78  0000ec  ebc2              		jmp routine16
  79  0000ee  eb1d              		jmp routine32
  80  0000f0  e9dd000000        		jmp routine64
  81  0000f5                    
  82  0000f5  e8b6ffffff        		call routine16
  83  0000fa  e80e000000        		call routine32
  84  0000ff  ff1500000000      		call *routine32
  85  000105  66ffd0            		call %ax
  86  000108  66ffd0            		call *%ax
  87  00010b  ffd3              		call *%ebx
  88  00010d                    routine32:
  89  00010d                    
  90  00010d                    .code64
  91  00010d  e89effffff        		call routine16
  92  000112  e8f6ffffff        		call routine32
  93  000117  ff142500000000    		call *routine64
  94  00011e  66ffd0            		call %ax
  95  000121  66ffd0            		call *%ax
  96  000124  ffd3              		call *%rbx
  97  000126  7088              		jo routine16
  98  000128  7186              		jno routine16
  99  00012a  7284              		jb routine16
 100  00012c  7282              		jc routine16
 101  00012e  7280              		jnae routine16
 102  000130  0f837affffff      		jnb routine16
 103  000136  0f8374ffffff      		jnc routine16
 104  00013c  0f836effffff      		jae routine16
 105  000142  0f8468ffffff      		jz routine16
 106  000148  0f8462ffffff      		je routine16
 107  00014e  0f855cffffff      		jnz routine16
 108  000154  0f8556ffffff      		jne routine16
 109  00015a  0f8650ffffff      		jbe routine16
 110  000160  0f864affffff      		jna routine16
 111  000166  0f8744ffffff      		jnbe routine16
 112  00016c  0f873effffff      		ja routine16
 113  000172  0f8838ffffff      		js routine16
 114  000178  0f8932ffffff      		jns routine16
 115  00017e  0f8a2cffffff      		jp routine16
 116  000184  0f8a26ffffff      		jpe routine16
 117  00018a  0f8b20ffffff      		jnp routine16
 118  000190  0f8b1affffff      		jpo routine16
 119  000196  0f8c14ffffff      		jl routine16
 120  00019c  0f8c0effffff      		jnge routine16
 121  0001a2  0f8d08ffffff      		jnl routine16
 122  0001a8  0f8d02ffffff      		jge routine16
 123  0001ae  0f8efcfeffff      		jle routine16
 124  0001b4  0f8ef6feffff      		jng routine16
 125  0001ba  0f8ff0feffff      		jnle routine16
 126  0001c0  0f8feafeffff      		jg routine16
 127  0001c6  e9e5feffff        		jmp routine16
 128  0001cb  e93dffffff        		jmp routine32
 129  0001d0  eb00              		jmp routine64
 130  0001d2                    routine64:
 131  0001d2                    
